target datalayout = "e-m:e-p270:32:32-p271:32:32-p272:64:64-i64:64-i128:128-f80:128-n8:16:32:64-S128"
target triple = "x86_64-pc-linux-gnu"

%struct.mbedtls_psa_aead_operation_t = type { i32, i16, i8, i8, %union.anon }
%union.anon = type { %struct.mbedtls_gcm_context }
%struct.mbedtls_gcm_context = type { %struct.mbedtls_cipher_context_t, [16 x [2 x i64]], i64, i64, [16 x i8], [16 x i8], [16 x i8], i8, i8 }
%struct.mbedtls_cipher_context_t = type { ptr, i32, i32, ptr, ptr, [16 x i8], i64, [16 x i8], i64, ptr, ptr }
%struct.psa_key_attributes_s = type { i16, i16, i32, %struct.psa_key_policy_s, i32 }
%struct.psa_key_policy_s = type { i32, i32, i32 }

; Function Attrs: inlinehint nounwind uwtable
define internal zeroext i16 @psa_get_key_type(ptr noundef %0) #4 {
  %2 = alloca ptr, align 8
  store ptr %0, ptr %2, align 8, !tbaa !3
  %3 = load ptr, ptr %2, align 8, !tbaa !3
  %4 = getelementptr inbounds nuw %struct.psa_key_attributes_s, ptr %3, i32 0, i32 0
  %5 = load i16, ptr %4, align 4, !tbaa !24
  ret i16 %5
}

; Function Attrs: nounwind uwtable
define internal i32 @psa_aead_setup(ptr noundef %0, ptr noundef %1, ptr noundef %2, i64 noundef %3, i32 noundef %4) #0 {
  %6 = alloca i32, align 4
  %7 = alloca ptr, align 8
  %8 = alloca ptr, align 8
  %9 = alloca ptr, align 8
  %10 = alloca i64, align 8
  %11 = alloca i32, align 4
  %12 = alloca i32, align 4
  %13 = alloca i32, align 4
  %14 = alloca i32, align 4
  %15 = alloca i64, align 8
  %16 = alloca i32, align 4
  store ptr %0, ptr %7, align 8, !tbaa !20
  store ptr %1, ptr %8, align 8, !tbaa !3
  store ptr %2, ptr %9, align 8, !tbaa !8
  store i64 %3, ptr %10, align 8, !tbaa !10
  store i32 %4, ptr %11, align 4, !tbaa !12
  call void @llvm.lifetime.start.p0(i64 4, ptr %12) #5
  store i32 -151, ptr %12, align 4, !tbaa !12
  call void @llvm.lifetime.start.p0(i64 4, ptr %13) #5
  call void @llvm.lifetime.start.p0(i64 4, ptr %14) #5
  call void @llvm.lifetime.start.p0(i64 8, ptr %15) #5
  %17 = load ptr, ptr %8, align 8, !tbaa !3
  %18 = getelementptr inbounds nuw %struct.psa_key_attributes_s, ptr %17, i32 0, i32 1
  %19 = load i16, ptr %18, align 2, !tbaa !21
  %20 = zext i16 %19 to i64
  store i64 %20, ptr %15, align 8, !tbaa !10
  %21 = load i32, ptr %11, align 4, !tbaa !12
  %22 = load ptr, ptr %8, align 8, !tbaa !3
  %23 = getelementptr inbounds nuw %struct.psa_key_attributes_s, ptr %22, i32 0, i32 0
  %24 = load i16, ptr %23, align 4, !tbaa !24
  %25 = call i32 @mbedtls_cipher_values_from_psa(i32 noundef %21, i16 noundef zeroext %24, ptr noundef %15, ptr noundef %14, ptr noundef %13)
  store i32 %25, ptr %12, align 4, !tbaa !12
  %26 = load i32, ptr %12, align 4, !tbaa !12
  %27 = icmp ne i32 %26, 0
  br i1 %27, label %28, label %30

28:                                               ; preds = %5
  %29 = load i32, ptr %12, align 4, !tbaa !12
  store i32 %29, ptr %6, align 4
  store i32 1, ptr %16, align 4
  br label %141

30:                                               ; preds = %5
  %31 = load i32, ptr %11, align 4, !tbaa !12
  %32 = and i32 %31, -4161537
  %33 = or i32 %32, 0
  switch i32 %33, label %129 [
    i32 88080640, label %34
    i32 88080896, label %72
    i32 83887360, label %110
  ]

34:                                               ; preds = %30
  %35 = load ptr, ptr %7, align 8, !tbaa !20
  %36 = getelementptr inbounds nuw %struct.mbedtls_psa_aead_operation_t, ptr %35, i32 0, i32 0
  store i32 89129216, ptr %36, align 8, !tbaa !19
  %37 = load ptr, ptr %8, align 8, !tbaa !3
  %38 = getelementptr inbounds nuw %struct.psa_key_attributes_s, ptr %37, i32 0, i32 0
  %39 = load i16, ptr %38, align 4, !tbaa !24
  %40 = zext i16 %39 to i32
  %41 = and i32 %40, 28672
  %42 = icmp eq i32 %41, 8192
  br i1 %42, label %43, label %51

43:                                               ; preds = %34
  %44 = load ptr, ptr %8, align 8, !tbaa !3
  %45 = getelementptr inbounds nuw %struct.psa_key_attributes_s, ptr %44, i32 0, i32 0
  %46 = load i16, ptr %45, align 4, !tbaa !24
  %47 = zext i16 %46 to i32
  %48 = ashr i32 %47, 8
  %49 = and i32 %48, 7
  %50 = shl i32 1, %49
  br label %52

51:                                               ; preds = %34
  br label %52

52:                                               ; preds = %51, %43
  %53 = phi i32 [ %50, %43 ], [ 0, %51 ]
  %54 = icmp ne i32 %53, 16
  br i1 %54, label %55, label %56

55:                                               ; preds = %52
  store i32 -135, ptr %6, align 4
  store i32 1, ptr %16, align 4
  br label %141

56:                                               ; preds = %52
  %57 = load ptr, ptr %7, align 8, !tbaa !20
  %58 = getelementptr inbounds nuw %struct.mbedtls_psa_aead_operation_t, ptr %57, i32 0, i32 4
  call void @mbedtls_ccm_init(ptr noundef %58)
  %59 = load ptr, ptr %7, align 8, !tbaa !20
  %60 = getelementptr inbounds nuw %struct.mbedtls_psa_aead_operation_t, ptr %59, i32 0, i32 4
  %61 = load i32, ptr %13, align 4, !tbaa !12
  %62 = load ptr, ptr %9, align 8, !tbaa !8
  %63 = load i64, ptr %15, align 8, !tbaa !10
  %64 = trunc i64 %63 to i32
  %65 = call i32 @mbedtls_ccm_setkey(ptr noundef %60, i32 noundef %61, ptr noundef %62, i32 noundef %64)
  %66 = call i32 @mbedtls_to_psa_error(i32 noundef %65)
  store i32 %66, ptr %12, align 4, !tbaa !12
  %67 = load i32, ptr %12, align 4, !tbaa !12
  %68 = icmp ne i32 %67, 0
  br i1 %68, label %69, label %71

69:                                               ; preds = %56
  %70 = load i32, ptr %12, align 4, !tbaa !12
  store i32 %70, ptr %6, align 4
  store i32 1, ptr %16, align 4
  br label %141

71:                                               ; preds = %56
  br label %130

72:                                               ; preds = %30
  %73 = load ptr, ptr %7, align 8, !tbaa !20
  %74 = getelementptr inbounds nuw %struct.mbedtls_psa_aead_operation_t, ptr %73, i32 0, i32 0
  store i32 89129472, ptr %74, align 8, !tbaa !19
  %75 = load ptr, ptr %8, align 8, !tbaa !3
  %76 = getelementptr inbounds nuw %struct.psa_key_attributes_s, ptr %75, i32 0, i32 0
  %77 = load i16, ptr %76, align 4, !tbaa !24
  %78 = zext i16 %77 to i32
  %79 = and i32 %78, 28672
  %80 = icmp eq i32 %79, 8192
  br i1 %80, label %81, label %89

81:                                               ; preds = %72
  %82 = load ptr, ptr %8, align 8, !tbaa !3
  %83 = getelementptr inbounds nuw %struct.psa_key_attributes_s, ptr %82, i32 0, i32 0
  %84 = load i16, ptr %83, align 4, !tbaa !24
  %85 = zext i16 %84 to i32
  %86 = ashr i32 %85, 8
  %87 = and i32 %86, 7
  %88 = shl i32 1, %87
  br label %90

89:                                               ; preds = %72
  br label %90

90:                                               ; preds = %89, %81
  %91 = phi i32 [ %88, %81 ], [ 0, %89 ]
  %92 = icmp ne i32 %91, 16
  br i1 %92, label %93, label %94

93:                                               ; preds = %90
  store i32 -135, ptr %6, align 4
  store i32 1, ptr %16, align 4
  br label %141

94:                                               ; preds = %90
  %95 = load ptr, ptr %7, align 8, !tbaa !20
  %96 = getelementptr inbounds nuw %struct.mbedtls_psa_aead_operation_t, ptr %95, i32 0, i32 4
  call void @mbedtls_gcm_init(ptr noundef %96)
  %97 = load ptr, ptr %7, align 8, !tbaa !20
  %98 = getelementptr inbounds nuw %struct.mbedtls_psa_aead_operation_t, ptr %97, i32 0, i32 4
  %99 = load i32, ptr %13, align 4, !tbaa !12
  %100 = load ptr, ptr %9, align 8, !tbaa !8
  %101 = load i64, ptr %15, align 8, !tbaa !10
  %102 = trunc i64 %101 to i32
  %103 = call i32 @mbedtls_gcm_setkey(ptr noundef %98, i32 noundef %99, ptr noundef %100, i32 noundef %102)
  %104 = call i32 @mbedtls_to_psa_error(i32 noundef %103)
  store i32 %104, ptr %12, align 4, !tbaa !12
  %105 = load i32, ptr %12, align 4, !tbaa !12
  %106 = icmp ne i32 %105, 0
  br i1 %106, label %107, label %109

107:                                              ; preds = %94
  %108 = load i32, ptr %12, align 4, !tbaa !12
  store i32 %108, ptr %6, align 4
  store i32 1, ptr %16, align 4
  br label %141

109:                                              ; preds = %94
  br label %130

110:                                              ; preds = %30
  %111 = load ptr, ptr %7, align 8, !tbaa !20
  %112 = getelementptr inbounds nuw %struct.mbedtls_psa_aead_operation_t, ptr %111, i32 0, i32 0
  store i32 84935936, ptr %112, align 8, !tbaa !19
  %113 = load i32, ptr %11, align 4, !tbaa !12
  %114 = icmp ne i32 %113, 84935936
  br i1 %114, label %115, label %116

115:                                              ; preds = %110
  store i32 -134, ptr %6, align 4
  store i32 1, ptr %16, align 4
  br label %141

116:                                              ; preds = %110
  %117 = load ptr, ptr %7, align 8, !tbaa !20
  %118 = getelementptr inbounds nuw %struct.mbedtls_psa_aead_operation_t, ptr %117, i32 0, i32 4
  call void @mbedtls_chachapoly_init(ptr noundef %118)
  %119 = load ptr, ptr %7, align 8, !tbaa !20
  %120 = getelementptr inbounds nuw %struct.mbedtls_psa_aead_operation_t, ptr %119, i32 0, i32 4
  %121 = load ptr, ptr %9, align 8, !tbaa !8
  %122 = call i32 @mbedtls_chachapoly_setkey(ptr noundef %120, ptr noundef %121)
  %123 = call i32 @mbedtls_to_psa_error(i32 noundef %122)
  store i32 %123, ptr %12, align 4, !tbaa !12
  %124 = load i32, ptr %12, align 4, !tbaa !12
  %125 = icmp ne i32 %124, 0
  br i1 %125, label %126, label %128

126:                                              ; preds = %116
  %127 = load i32, ptr %12, align 4, !tbaa !12
  store i32 %127, ptr %6, align 4
  store i32 1, ptr %16, align 4
  br label %141

128:                                              ; preds = %116
  br label %130

129:                                              ; preds = %30
  store i32 -134, ptr %6, align 4
  store i32 1, ptr %16, align 4
  br label %141

130:                                              ; preds = %128, %109, %71
  %131 = load ptr, ptr %8, align 8, !tbaa !3
  %132 = call zeroext i16 @psa_get_key_type(ptr noundef %131)
  %133 = load ptr, ptr %7, align 8, !tbaa !20
  %134 = getelementptr inbounds nuw %struct.mbedtls_psa_aead_operation_t, ptr %133, i32 0, i32 1
  store i16 %132, ptr %134, align 4, !tbaa !25
  %135 = load i32, ptr %11, align 4, !tbaa !12
  %136 = and i32 %135, 4128768
  %137 = lshr i32 %136, 16
  %138 = trunc i32 %137 to i8
  %139 = load ptr, ptr %7, align 8, !tbaa !20
  %140 = getelementptr inbounds nuw %struct.mbedtls_psa_aead_operation_t, ptr %139, i32 0, i32 3
  store i8 %138, ptr %140, align 1, !tbaa !16
  store i32 0, ptr %6, align 4
  store i32 1, ptr %16, align 4
  br label %141

141:                                              ; preds = %130, %129, %126, %115, %107, %93, %69, %55, %28
  call void @llvm.lifetime.end.p0(i64 8, ptr %15) #5
  call void @llvm.lifetime.end.p0(i64 4, ptr %14) #5
  call void @llvm.lifetime.end.p0(i64 4, ptr %13) #5
  call void @llvm.lifetime.end.p0(i64 4, ptr %12) #5
  %142 = load i32, ptr %6, align 4
  ret i32 %142
}