; Function Attrs: nounwind uwtable
define internal fastcc i32 @psa_aead_setup(ptr noundef %0, ptr noundef readonly captures(none) %1, ptr noundef %2, i32 noundef %3) unnamed_addr #0 {
  %5 = alloca i32, align 4
  %6 = alloca i32, align 4
  %7 = alloca i64, align 8
  call void @llvm.lifetime.start.p0(i64 4, ptr nonnull %5) #4
  call void @llvm.lifetime.start.p0(i64 4, ptr nonnull %6) #4
  call void @llvm.lifetime.start.p0(i64 8, ptr nonnull %7) #4
  %8 = getelementptr inbounds nuw i8, ptr %1, i64 2
  %9 = load i16, ptr %8, align 2, !tbaa !12
  %10 = zext i16 %9 to i64
  store i64 %10, ptr %7, align 8, !tbaa !10
  %11 = load i16, ptr %1, align 4, !tbaa !15
  %12 = call i32 @mbedtls_cipher_values_from_psa(i32 noundef %3, i16 noundef zeroext %11, ptr noundef nonnull %7, ptr noundef nonnull %6, ptr noundef nonnull %5) #4
  %.not = icmp eq i32 %12, 0
  br i1 %.not, label %13, label %46

13:                                               ; preds = %4
  %14 = and i32 %3, -4161537
  switch i32 %14, label %46 [
    i32 88080640, label %15
    i32 88080896, label %25
    i32 83887360, label %35
  ]

15:                                               ; preds = %13
  store i32 89129216, ptr %0, align 8, !tbaa !9
  %16 = load i16, ptr %1, align 4, !tbaa !15
  %17 = and i16 %16, 30464
  %.not41 = icmp eq i16 %17, 9216
  br i1 %.not41, label %18, label %46

18:                                               ; preds = %15
  %19 = getelementptr inbounds nuw i8, ptr %0, i64 8
  call void @mbedtls_ccm_init(ptr noundef nonnull %19) #4
  %20 = load i32, ptr %5, align 4, !tbaa !16
  %21 = load i64, ptr %7, align 8, !tbaa !10
  %22 = trunc i64 %21 to i32
  %23 = call i32 @mbedtls_ccm_setkey(ptr noundef nonnull %19, i32 noundef %20, ptr noundef %2, i32 noundef %22) #4
  %24 = call i32 @mbedtls_to_psa_error(i32 noundef %23) #4
  %.not42 = icmp eq i32 %24, 0
  br i1 %.not42, label %40, label %46

25:                                               ; preds = %13
  store i32 89129472, ptr %0, align 8, !tbaa !9
  %26 = load i16, ptr %1, align 4, !tbaa !15
  %27 = and i16 %26, 30464
  %.not39 = icmp eq i16 %27, 9216
  br i1 %.not39, label %28, label %46

28:                                               ; preds = %25
  %29 = getelementptr inbounds nuw i8, ptr %0, i64 8
  call void @mbedtls_gcm_init(ptr noundef nonnull %29) #4
  %30 = load i32, ptr %5, align 4, !tbaa !16
  %31 = load i64, ptr %7, align 8, !tbaa !10
  %32 = trunc i64 %31 to i32
  %33 = call i32 @mbedtls_gcm_setkey(ptr noundef nonnull %29, i32 noundef %30, ptr noundef %2, i32 noundef %32) #4
  %34 = call i32 @mbedtls_to_psa_error(i32 noundef %33) #4
  %.not40 = icmp eq i32 %34, 0
  br i1 %.not40, label %40, label %46

35:                                               ; preds = %13
  store i32 84935936, ptr %0, align 8, !tbaa !9
  %.not37 = icmp eq i32 %3, 84935936
  br i1 %.not37, label %36, label %46

36:                                               ; preds = %35
  %37 = getelementptr inbounds nuw i8, ptr %0, i64 8
  call void @mbedtls_chachapoly_init(ptr noundef nonnull %37) #4
  %38 = call i32 @mbedtls_chachapoly_setkey(ptr noundef nonnull %37, ptr noundef %2) #4
  %39 = call i32 @mbedtls_to_psa_error(i32 noundef %38) #4
  %.not38 = icmp eq i32 %39, 0
  br i1 %.not38, label %40, label %46

40:                                               ; preds = %36, %28, %18
  %.val = load i16, ptr %1, align 4, !tbaa !15
  %41 = getelementptr inbounds nuw i8, ptr %0, i64 4
  store i16 %.val, ptr %41, align 4, !tbaa !17
  %42 = lshr i32 %3, 16
  %43 = trunc i32 %42 to i8
  %44 = and i8 %43, 63
  %45 = getelementptr inbounds nuw i8, ptr %0, i64 7
  store i8 %44, ptr %45, align 1, !tbaa !3
  br label %46

46:                                               ; preds = %13, %36, %35, %28, %25, %18, %15, %4, %40
  %.0 = phi i32 [ 0, %40 ], [ %12, %4 ], [ -135, %15 ], [ %24, %18 ], [ -135, %25 ], [ %34, %28 ], [ -134, %35 ], [ %39, %36 ], [ -134, %13 ]
  call void @llvm.lifetime.end.p0(i64 8, ptr nonnull %7) #4
  call void @llvm.lifetime.end.p0(i64 4, ptr nonnull %6) #4
  call void @llvm.lifetime.end.p0(i64 4, ptr nonnull %5) #4
  ret i32 %.0
}